; Function Attrs: null_pointer_is_valid sspstrong uwtable
define internal noundef i32 @cigi3_add_environmental_region_control(ptr noundef %0, ptr readnone captures(none) %1, ptr noundef %2, ptr readnone captures(none) %3) #0 {
  %5 = load i32, ptr @hf_cigi3_environmental_region_control_region_id, align 4
  %.b59 = load i1, ptr @cigi_byte_order, align 4
  %6 = select i1 %.b59, i32 -2147483648, i32 0
  %7 = tail call ptr @proto_tree_add_item(ptr noundef %2, i32 noundef %5, ptr noundef %0, i32 noundef 0, i32 noundef 2, i32 noundef %6)
  %8 = load i32, ptr @hf_cigi3_environmental_region_control_region_state, align 4
  %.b58 = load i1, ptr @cigi_byte_order, align 4
  %9 = select i1 %.b58, i32 -2147483648, i32 0
  %10 = tail call ptr @proto_tree_add_item(ptr noundef %2, i32 noundef %8, ptr noundef %0, i32 noundef 2, i32 noundef 1, i32 noundef %9)
  %11 = load i32, ptr @hf_cigi3_environmental_region_control_merge_weather, align 4
  %.b57 = load i1, ptr @cigi_byte_order, align 4
  %12 = select i1 %.b57, i32 -2147483648, i32 0
  %13 = tail call ptr @proto_tree_add_item(ptr noundef %2, i32 noundef %11, ptr noundef %0, i32 noundef 2, i32 noundef 1, i32 noundef %12)
  %14 = load i32, ptr @hf_cigi3_environmental_region_control_merge_aerosol, align 4
  %.b56 = load i1, ptr @cigi_byte_order, align 4
  %15 = select i1 %.b56, i32 -2147483648, i32 0
  %16 = tail call ptr @proto_tree_add_item(ptr noundef %2, i32 noundef %14, ptr noundef %0, i32 noundef 2, i32 noundef 1, i32 noundef %15)
  %17 = load i32, ptr @hf_cigi3_environmental_region_control_merge_maritime, align 4
  %.b55 = load i1, ptr @cigi_byte_order, align 4
  %18 = select i1 %.b55, i32 -2147483648, i32 0
  %19 = tail call ptr @proto_tree_add_item(ptr noundef %2, i32 noundef %17, ptr noundef %0, i32 noundef 2, i32 noundef 1, i32 noundef %18)
  %20 = load i32, ptr @hf_cigi3_environmental_region_control_merge_terrestrial, align 4
  %.b54 = load i1, ptr @cigi_byte_order, align 4
  %21 = select i1 %.b54, i32 -2147483648, i32 0
  %22 = tail call ptr @proto_tree_add_item(ptr noundef %2, i32 noundef %20, ptr noundef %0, i32 noundef 2, i32 noundef 1, i32 noundef %21)
  %23 = load i32, ptr @hf_cigi3_environmental_region_control_lat, align 4
  %.b53 = load i1, ptr @cigi_byte_order, align 4
  %24 = select i1 %.b53, i32 -2147483648, i32 0
  %25 = tail call ptr @proto_tree_add_item(ptr noundef %2, i32 noundef %23, ptr noundef %0, i32 noundef 6, i32 noundef 8, i32 noundef %24)
  %26 = load i32, ptr @hf_cigi3_environmental_region_control_lon, align 4
  %.b52 = load i1, ptr @cigi_byte_order, align 4
  %27 = select i1 %.b52, i32 -2147483648, i32 0
  %28 = tail call ptr @proto_tree_add_item(ptr noundef %2, i32 noundef %26, ptr noundef %0, i32 noundef 14, i32 noundef 8, i32 noundef %27)
  %29 = load i32, ptr @hf_cigi3_environmental_region_control_size_x, align 4
  %.b51 = load i1, ptr @cigi_byte_order, align 4
  %30 = select i1 %.b51, i32 -2147483648, i32 0
  %31 = tail call ptr @proto_tree_add_item(ptr noundef %2, i32 noundef %29, ptr noundef %0, i32 noundef 22, i32 noundef 4, i32 noundef %30)
  %32 = load i32, ptr @hf_cigi3_environmental_region_control_size_y, align 4
  %.b50 = load i1, ptr @cigi_byte_order, align 4
  %33 = select i1 %.b50, i32 -2147483648, i32 0
  %34 = tail call ptr @proto_tree_add_item(ptr noundef %2, i32 noundef %32, ptr noundef %0, i32 noundef 26, i32 noundef 4, i32 noundef %33)
  %35 = load i32, ptr @hf_cigi3_environmental_region_control_corner_radius, align 4
  %.b49 = load i1, ptr @cigi_byte_order, align 4
  %36 = select i1 %.b49, i32 -2147483648, i32 0
  %37 = tail call ptr @proto_tree_add_item(ptr noundef %2, i32 noundef %35, ptr noundef %0, i32 noundef 30, i32 noundef 4, i32 noundef %36)
  %38 = load i32, ptr @hf_cigi3_environmental_region_control_rotation, align 4
  %.b48 = load i1, ptr @cigi_byte_order, align 4
  %39 = select i1 %.b48, i32 -2147483648, i32 0
  %40 = tail call ptr @proto_tree_add_item(ptr noundef %2, i32 noundef %38, ptr noundef %0, i32 noundef 34, i32 noundef 4, i32 noundef %39)
  %41 = load i32, ptr @hf_cigi3_environmental_region_control_transition_perimeter, align 4
  %.b = load i1, ptr @cigi_byte_order, align 4
  %42 = select i1 %.b, i32 -2147483648, i32 0
  %43 = tail call ptr @proto_tree_add_item(ptr noundef %2, i32 noundef %41, ptr noundef %0, i32 noundef 38, i32 noundef 4, i32 noundef %42)
  ret i32 46
}